; Function Attrs: nounwind uwtable
define i32 @bufferevent_replacefd(ptr noundef %0, i32 noundef %1) local_unnamed_addr #0 {
  %3 = alloca %union.bufferevent_ctrl_data, align 8
  call void @llvm.lifetime.start.p0(i64 8, ptr nonnull %3) #7
  %4 = getelementptr inbounds nuw i8, ptr %0, i64 448
  %5 = load ptr, ptr %4, align 8
  %.not = icmp eq ptr %5, null
  br i1 %.not, label %9, label %6

6:                                                ; preds = %2
  %7 = load ptr, ptr getelementptr inbounds nuw (i8, ptr @evthread_lock_fns_, i64 24), align 8
  %8 = tail call i32 %7(i32 noundef 0, ptr noundef nonnull %5) #7
  br label %9

9:                                                ; preds = %6, %2
  %10 = getelementptr inbounds nuw i8, ptr %0, i64 8
  %11 = load ptr, ptr %10, align 8
  %12 = getelementptr inbounds nuw i8, ptr %11, i64 64
  %13 = load ptr, ptr %12, align 8
  %.not30 = icmp eq ptr %13, null
  br i1 %.not30, label %.thread39, label %14

14:                                               ; preds = %9
  %15 = call i32 %13(ptr noundef nonnull %0, i32 noundef 1, ptr noundef nonnull %3) #7
  %.not31 = icmp eq i32 %15, 0
  br i1 %.not31, label %16, label %.thread39

16:                                               ; preds = %14
  %17 = load i32, ptr %3, align 8
  %.not32 = icmp eq i32 %17, -1
  br i1 %.not32, label %.thread, label %18

18:                                               ; preds = %16
  %19 = call i32 @evutil_closesocket(i32 noundef %17) #7
  %.not33 = icmp eq i32 %19, 0
  br i1 %.not33, label %.thread, label %.thread39

.thread:                                          ; preds = %16, %18
  store i32 %1, ptr %3, align 8
  %20 = load ptr, ptr %10, align 8
  %21 = getelementptr inbounds nuw i8, ptr %20, i64 64
  %22 = load ptr, ptr %21, align 8
  %23 = call i32 %22(ptr noundef nonnull %0, i32 noundef 0, ptr noundef nonnull %3) #7
  br label %.thread39

.thread39:                                        ; preds = %14, %18, %.thread, %9
  %.021 = phi i32 [ %17, %18 ], [ %17, %.thread ], [ -1, %9 ], [ -1, %14 ]
  %.0 = phi i32 [ %19, %18 ], [ %23, %.thread ], [ -1, %9 ], [ %15, %14 ]
  %24 = icmp ne i32 %.0, 0
  %25 = load i32, ptr @event_debug_logging_mask_, align 4
  %26 = icmp ne i32 %25, 0
  %or.cond = select i1 %24, i1 %26, i1 false
  br i1 %or.cond, label %27, label %28

27:                                               ; preds = %.thread39
  call void (ptr, ...) @event_debugx_(ptr noundef nonnull @.str.4, ptr noundef nonnull @__func__.bufferevent_replacefd, ptr noundef nonnull %0, i32 noundef %.021, i32 noundef %1) #7
  br label %28

28:                                               ; preds = %.thread39, %27
  %29 = load ptr, ptr %4, align 8
  %.not34 = icmp eq ptr %29, null
  br i1 %.not34, label %33, label %30

30:                                               ; preds = %28
  %31 = load ptr, ptr getelementptr inbounds nuw (i8, ptr @evthread_lock_fns_, i64 32), align 8
  %32 = call i32 %31(i32 noundef 0, ptr noundef nonnull %29) #7
  br label %33

33:                                               ; preds = %30, %28
  call void @llvm.lifetime.end.p0(i64 8, ptr nonnull %3) #7
  ret i32 %.0
}